; Function Attrs: mustprogress uwtable
define internal void @_ZN19OpenColorIO_v2_4dev12_GLOBAL__N_17Lut1DOp8finalizeEv(ptr nocapture noundef nonnull readonly align 8 dereferenceable(24) %this) unnamed_addr #3 align 2 personality ptr @__gxx_personality_v0 {
entry:
  %ref.tmp = alloca %"class.std::shared_ptr", align 8
  %0 = getelementptr inbounds i8, ptr %this, i64 8
  %this.val = load ptr, ptr %0, align 8, !noalias !52, !nonnull !26, !noundef !26
  %1 = getelementptr inbounds i8, ptr %this, i64 16
  %this.val1 = load ptr, ptr %1, align 8
  tail call void @llvm.experimental.noalias.scope.decl(metadata !57)
  tail call void @llvm.experimental.noalias.scope.decl(metadata !60)
  tail call void @llvm.experimental.noalias.scope.decl(metadata !63)
  %2 = tail call ptr @__dynamic_cast(ptr nonnull %this.val, ptr nonnull @_ZTIN19OpenColorIO_v2_4dev6OpDataE, ptr nonnull @_ZTIN19OpenColorIO_v2_4dev11Lut1DOpDataE, i64 0) #20, !noalias !66
  %tobool.not.i.i.i = icmp ne ptr %2, null
  tail call void @llvm.assume(i1 %tobool.not.i.i.i)
  store ptr %2, ptr %ref.tmp, align 8, !alias.scope !66
  %_M_refcount.i.i.i.i.i = getelementptr inbounds i8, ptr %ref.tmp, i64 8
  store ptr %this.val1, ptr %_M_refcount.i.i.i.i.i, align 8, !alias.scope !66
  %cmp.not.i.i.i.i.i.i = icmp eq ptr %this.val1, null
  br i1 %cmp.not.i.i.i.i.i.i, label %_ZN19OpenColorIO_v2_4dev12_GLOBAL__N_17Lut1DOp9lut1DDataEv.exit, label %if.then.i.i.i.i.i.i

if.then.i.i.i.i.i.i:                              ; preds = %entry
  %_M_use_count.i.i.i.i.i.i.i = getelementptr inbounds i8, ptr %this.val1, i64 8
  %3 = load i8, ptr @__libc_single_threaded, align 1, !noalias !66
  %tobool.i.not.i.i.i.i.i.i.i = icmp eq i8 %3, 0
  br i1 %tobool.i.not.i.i.i.i.i.i.i, label %if.else.i.i.i.i.i.i.i.i, label %if.then.i.i.i.i.i.i.i.i

if.then.i.i.i.i.i.i.i.i:                          ; preds = %if.then.i.i.i.i.i.i
  %4 = load i32, ptr %_M_use_count.i.i.i.i.i.i.i, align 4, !noalias !66
  %add.i.i.i.i.i.i.i.i = add nsw i32 %4, 1
  store i32 %add.i.i.i.i.i.i.i.i, ptr %_M_use_count.i.i.i.i.i.i.i, align 4, !noalias !66
  br label %_ZN19OpenColorIO_v2_4dev12_GLOBAL__N_17Lut1DOp9lut1DDataEv.exit

if.else.i.i.i.i.i.i.i.i:                          ; preds = %if.then.i.i.i.i.i.i
  %5 = atomicrmw volatile add ptr %_M_use_count.i.i.i.i.i.i.i, i32 1 acq_rel, align 4, !noalias !66
  %.pre = load ptr, ptr %ref.tmp, align 8
  br label %_ZN19OpenColorIO_v2_4dev12_GLOBAL__N_17Lut1DOp9lut1DDataEv.exit

_ZN19OpenColorIO_v2_4dev12_GLOBAL__N_17Lut1DOp9lut1DDataEv.exit: ; preds = %entry, %if.then.i.i.i.i.i.i.i.i, %if.else.i.i.i.i.i.i.i.i
  %6 = phi ptr [ %2, %entry ], [ %2, %if.then.i.i.i.i.i.i.i.i ], [ %.pre, %if.else.i.i.i.i.i.i.i.i ]
  invoke void @_ZN19OpenColorIO_v2_4dev11Lut1DOpData8finalizeEv(ptr noundef nonnull align 8 dereferenceable(364) %6)
          to label %invoke.cont unwind label %lpad

invoke.cont:                                      ; preds = %_ZN19OpenColorIO_v2_4dev12_GLOBAL__N_17Lut1DOp9lut1DDataEv.exit
  %_M_refcount.i.i = getelementptr inbounds i8, ptr %ref.tmp, i64 8
  %7 = load ptr, ptr %_M_refcount.i.i, align 8
  %cmp.not.i.i.i = icmp eq ptr %7, null
  br i1 %cmp.not.i.i.i, label %_ZNSt10shared_ptrIN19OpenColorIO_v2_4dev11Lut1DOpDataEED2Ev.exit, label %if.then.i.i.i2

if.then.i.i.i2:                                   ; preds = %invoke.cont
  %_M_use_count.i.i.i.i = getelementptr inbounds i8, ptr %7, i64 8
  %8 = load atomic i64, ptr %_M_use_count.i.i.i.i acquire, align 8
  %cmp.i.i.i.i = icmp eq i64 %8, 4294967297
  %9 = trunc i64 %8 to i32
  br i1 %cmp.i.i.i.i, label %if.then.i.i.i.i, label %if.end.i.i.i.i

if.then.i.i.i.i:                                  ; preds = %if.then.i.i.i2
  store i32 0, ptr %_M_use_count.i.i.i.i, align 8
  %_M_weak_count.i.i.i.i = getelementptr inbounds i8, ptr %7, i64 12
  store i32 0, ptr %_M_weak_count.i.i.i.i, align 4
  %vtable.i.i.i.i = load ptr, ptr %7, align 8
  %vfn.i.i.i.i = getelementptr inbounds i8, ptr %vtable.i.i.i.i, i64 16
  %10 = load ptr, ptr %vfn.i.i.i.i, align 8
  tail call void %10(ptr noundef nonnull align 8 dereferenceable(16) %7) #20
  br label %if.end8.sink.split.i.i.i.i

if.end.i.i.i.i:                                   ; preds = %if.then.i.i.i2
  %11 = load i8, ptr @__libc_single_threaded, align 1
  %tobool.i.i.not.i.i.i.i = icmp eq i8 %11, 0
  br i1 %tobool.i.i.not.i.i.i.i, label %if.else.i.i.i.i.i, label %if.then.i.i.i.i.i

if.then.i.i.i.i.i:                                ; preds = %if.end.i.i.i.i
  %add.i.i.i.i.i = add nsw i32 %9, -1
  store i32 %add.i.i.i.i.i, ptr %_M_use_count.i.i.i.i, align 4
  br label %_ZN9__gnu_cxx27__exchange_and_add_dispatchEPii.exit.i.i.i.i

if.else.i.i.i.i.i:                                ; preds = %if.end.i.i.i.i
  %12 = atomicrmw volatile add ptr %_M_use_count.i.i.i.i, i32 -1 acq_rel, align 4
  br label %_ZN9__gnu_cxx27__exchange_and_add_dispatchEPii.exit.i.i.i.i

_ZN9__gnu_cxx27__exchange_and_add_dispatchEPii.exit.i.i.i.i: ; preds = %if.else.i.i.i.i.i, %if.then.i.i.i.i.i
  %retval.i.0.i.i.i.i = phi i32 [ %9, %if.then.i.i.i.i.i ], [ %12, %if.else.i.i.i.i.i ]
  %cmp6.i.i.i.i = icmp eq i32 %retval.i.0.i.i.i.i, 1
  br i1 %cmp6.i.i.i.i, label %if.then7.i.i.i.i, label %_ZNSt10shared_ptrIN19OpenColorIO_v2_4dev11Lut1DOpDataEED2Ev.exit

if.then7.i.i.i.i:                                 ; preds = %_ZN9__gnu_cxx27__exchange_and_add_dispatchEPii.exit.i.i.i.i
  %vtable.i.i.i.i.i.i = load ptr, ptr %7, align 8
  %vfn.i.i.i.i.i.i = getelementptr inbounds i8, ptr %vtable.i.i.i.i.i.i, i64 16
  %13 = load ptr, ptr %vfn.i.i.i.i.i.i, align 8
  tail call void %13(ptr noundef nonnull align 8 dereferenceable(16) %7) #20
  %_M_weak_count.i.i.i.i.i.i = getelementptr inbounds i8, ptr %7, i64 12
  %14 = load i8, ptr @__libc_single_threaded, align 1
  %tobool.i.i.not.i.i.i.i.i.i = icmp eq i8 %14, 0
  br i1 %tobool.i.i.not.i.i.i.i.i.i, label %if.else.i.i.i.i.i.i.i, label %if.then.i.i.i.i.i.i.i

if.then.i.i.i.i.i.i.i:                            ; preds = %if.then7.i.i.i.i
  %15 = load i32, ptr %_M_weak_count.i.i.i.i.i.i, align 4
  %add.i.i.i.i.i.i.i = add nsw i32 %15, -1
  store i32 %add.i.i.i.i.i.i.i, ptr %_M_weak_count.i.i.i.i.i.i, align 4
  br label %_ZN9__gnu_cxx27__exchange_and_add_dispatchEPii.exit.i.i.i.i.i.i

if.else.i.i.i.i.i.i.i:                            ; preds = %if.then7.i.i.i.i
  %16 = atomicrmw volatile add ptr %_M_weak_count.i.i.i.i.i.i, i32 -1 acq_rel, align 4
  br label %_ZN9__gnu_cxx27__exchange_and_add_dispatchEPii.exit.i.i.i.i.i.i

_ZN9__gnu_cxx27__exchange_and_add_dispatchEPii.exit.i.i.i.i.i.i: ; preds = %if.else.i.i.i.i.i.i.i, %if.then.i.i.i.i.i.i.i
  %retval.i.0.i.i.i.i.i.i = phi i32 [ %15, %if.then.i.i.i.i.i.i.i ], [ %16, %if.else.i.i.i.i.i.i.i ]
  %cmp.i.i.i.i.i.i = icmp eq i32 %retval.i.0.i.i.i.i.i.i, 1
  br i1 %cmp.i.i.i.i.i.i, label %if.end8.sink.split.i.i.i.i, label %_ZNSt10shared_ptrIN19OpenColorIO_v2_4dev11Lut1DOpDataEED2Ev.exit

if.end8.sink.split.i.i.i.i:                       ; preds = %_ZN9__gnu_cxx27__exchange_and_add_dispatchEPii.exit.i.i.i.i.i.i, %if.then.i.i.i.i
  %vtable2.i.i.i.i.i.i = load ptr, ptr %7, align 8
  %vfn3.i.i.i.i.i.i = getelementptr inbounds i8, ptr %vtable2.i.i.i.i.i.i, i64 24
  %17 = load ptr, ptr %vfn3.i.i.i.i.i.i, align 8
  tail call void %17(ptr noundef nonnull align 8 dereferenceable(16) %7) #20
  br label %_ZNSt10shared_ptrIN19OpenColorIO_v2_4dev11Lut1DOpDataEED2Ev.exit

_ZNSt10shared_ptrIN19OpenColorIO_v2_4dev11Lut1DOpDataEED2Ev.exit: ; preds = %invoke.cont, %_ZN9__gnu_cxx27__exchange_and_add_dispatchEPii.exit.i.i.i.i, %_ZN9__gnu_cxx27__exchange_and_add_dispatchEPii.exit.i.i.i.i.i.i, %if.end8.sink.split.i.i.i.i
  ret void

lpad:                                             ; preds = %_ZN19OpenColorIO_v2_4dev12_GLOBAL__N_17Lut1DOp9lut1DDataEv.exit
  %18 = landingpad { ptr, i32 }
          cleanup
  call void @_ZNSt10shared_ptrIN19OpenColorIO_v2_4dev11Lut1DOpDataEED2Ev(ptr noundef nonnull align 8 dereferenceable(16) %ref.tmp) #20
  resume { ptr, i32 } %18
}